; Function Attrs: mustprogress nounwind uwtable
define hidden void @_ZN9CodeCache23release_exception_cacheEP14ExceptionCache(ptr noundef %0) local_unnamed_addr #1 align 2 {
  %2 = load volatile i32, ptr @_ZN20SafepointSynchronize6_stateE, align 4
  %3 = icmp eq i32 %2, 2
  br i1 %3, label %5, label %.preheader

.preheader:                                       ; preds = %1
  %4 = getelementptr inbounds i8, ptr %0, i64 280
  br label %8

5:                                                ; preds = %1
  %6 = icmp eq ptr %0, null
  br i1 %6, label %.loopexit, label %7

7:                                                ; preds = %5
  tail call void @_Z8FreeHeapPv(ptr noundef nonnull %0) #20
  br label %.loopexit

8:                                                ; preds = %.preheader, %8
  %9 = load volatile ptr, ptr @_ZN9CodeCache27_exception_cache_purge_listE, align 8
  store ptr %9, ptr %4, align 8
  %10 = tail call noundef ptr asm sideeffect "lock cmpxchgq $1,($3)", "={ax},r,{ax},r,~{cc},~{memory},~{dirflag},~{fpsr},~{flags}"(ptr %0, ptr %9, ptr nonnull @_ZN9CodeCache27_exception_cache_purge_listE) #20, !srcloc !39
  %11 = icmp eq ptr %10, %9
  br i1 %11, label %.loopexit, label %8, !llvm.loop !40

.loopexit:                                        ; preds = %8, %5, %7
  ret void
}